target datalayout = "e-m:e-p270:32:32-p271:32:32-p272:64:64-i64:64-i128:128-f80:128-n8:16:32:64-S128"
target triple = "x86_64-pc-linux-gnu"

%"struct.duckdb_brotli::PreparedDictionary" = type { i32, i32, i32, i32, i32, i32 }
%"struct.duckdb_brotli::CompoundDictionary" = type { i64, i64, [16 x ptr], [16 x ptr], [16 x i64], i64, [16 x ptr] }

; Function Attrs: alwaysinline mustprogress nounwind uwtable
define internal noundef ptr @_ZL25BROTLI_UNALIGNED_LOAD_PTRPKv(ptr noundef %0) #3 {
  %2 = alloca ptr, align 8
  %3 = alloca ptr, align 8
  store ptr %0, ptr %2, align 8, !tbaa !45
  call void @llvm.lifetime.start.p0(i64 8, ptr %3) #6
  %4 = load ptr, ptr %2, align 8, !tbaa !45
  call void @llvm.memcpy.p0.p0.i64(ptr align 8 %3, ptr align 1 %4, i64 8, i1 false)
  %5 = load ptr, ptr %3, align 8, !tbaa !45
  call void @llvm.lifetime.end.p0(i64 8, ptr %3) #6
  ret ptr %5
}

; Function Attrs: mustprogress uwtable
define noundef i32 @_ZN13duckdb_brotli24AttachPreparedDictionaryEPNS_18CompoundDictionaryEPKNS_18PreparedDictionaryE(ptr noundef %0, ptr noundef %1) #0 {
  %3 = alloca i32, align 4
  %4 = alloca ptr, align 8
  %5 = alloca ptr, align 8
  %6 = alloca i64, align 8
  %7 = alloca i64, align 8
  %8 = alloca i32, align 4
  %9 = alloca ptr, align 8
  %10 = alloca ptr, align 8
  %11 = alloca ptr, align 8
  %12 = alloca ptr, align 8
  store ptr %0, ptr %4, align 8, !tbaa !40
  store ptr %1, ptr %5, align 8, !tbaa !18
  call void @llvm.lifetime.start.p0(i64 8, ptr %6) #6
  store i64 0, ptr %6, align 8, !tbaa !10
  call void @llvm.lifetime.start.p0(i64 8, ptr %7) #6
  store i64 0, ptr %7, align 8, !tbaa !10
  %13 = load ptr, ptr %4, align 8, !tbaa !40
  %14 = getelementptr inbounds nuw %"struct.duckdb_brotli::CompoundDictionary", ptr %13, i32 0, i32 0
  %15 = load i64, ptr %14, align 8, !tbaa !42
  %16 = icmp eq i64 %15, 15
  br i1 %16, label %17, label %18

17:                                               ; preds = %2
  store i32 0, ptr %3, align 4
  store i32 1, ptr %8, align 4
  br label %92

18:                                               ; preds = %2
  %19 = load ptr, ptr %5, align 8, !tbaa !18
  %20 = icmp ne ptr %19, null
  br i1 %20, label %22, label %21

21:                                               ; preds = %18
  store i32 0, ptr %3, align 4
  store i32 1, ptr %8, align 4
  br label %92

22:                                               ; preds = %18
  %23 = load ptr, ptr %5, align 8, !tbaa !18
  %24 = getelementptr inbounds nuw %"struct.duckdb_brotli::PreparedDictionary", ptr %23, i32 0, i32 2
  %25 = load i32, ptr %24, align 4, !tbaa !33
  %26 = zext i32 %25 to i64
  store i64 %26, ptr %6, align 8, !tbaa !10
  %27 = load ptr, ptr %4, align 8, !tbaa !40
  %28 = getelementptr inbounds nuw %"struct.duckdb_brotli::CompoundDictionary", ptr %27, i32 0, i32 0
  %29 = load i64, ptr %28, align 8, !tbaa !42
  store i64 %29, ptr %7, align 8, !tbaa !10
  %30 = load i64, ptr %6, align 8, !tbaa !10
  %31 = load ptr, ptr %4, align 8, !tbaa !40
  %32 = getelementptr inbounds nuw %"struct.duckdb_brotli::CompoundDictionary", ptr %31, i32 0, i32 1
  %33 = load i64, ptr %32, align 8, !tbaa !44
  %34 = add i64 %33, %30
  store i64 %34, ptr %32, align 8, !tbaa !44
  %35 = load ptr, ptr %5, align 8, !tbaa !18
  %36 = load ptr, ptr %4, align 8, !tbaa !40
  %37 = getelementptr inbounds nuw %"struct.duckdb_brotli::CompoundDictionary", ptr %36, i32 0, i32 2
  %38 = load i64, ptr %7, align 8, !tbaa !10
  %39 = getelementptr inbounds nuw [16 x ptr], ptr %37, i64 0, i64 %38
  store ptr %35, ptr %39, align 8, !tbaa !18
  %40 = load ptr, ptr %4, align 8, !tbaa !40
  %41 = getelementptr inbounds nuw %"struct.duckdb_brotli::CompoundDictionary", ptr %40, i32 0, i32 1
  %42 = load i64, ptr %41, align 8, !tbaa !44
  %43 = load ptr, ptr %4, align 8, !tbaa !40
  %44 = getelementptr inbounds nuw %"struct.duckdb_brotli::CompoundDictionary", ptr %43, i32 0, i32 4
  %45 = load i64, ptr %7, align 8, !tbaa !10
  %46 = add i64 %45, 1
  %47 = getelementptr inbounds nuw [16 x i64], ptr %44, i64 0, i64 %46
  store i64 %42, ptr %47, align 8, !tbaa !10
  call void @llvm.lifetime.start.p0(i64 8, ptr %9) #6
  %48 = load ptr, ptr %5, align 8, !tbaa !18
  %49 = getelementptr inbounds %"struct.duckdb_brotli::PreparedDictionary", ptr %48, i64 1
  store ptr %49, ptr %9, align 8, !tbaa !22
  call void @llvm.lifetime.start.p0(i64 8, ptr %10) #6
  %50 = load ptr, ptr %9, align 8, !tbaa !22
  %51 = load ptr, ptr %5, align 8, !tbaa !18
  %52 = getelementptr inbounds nuw %"struct.duckdb_brotli::PreparedDictionary", ptr %51, i32 0, i32 5
  %53 = load i32, ptr %52, align 4, !tbaa !36
  %54 = shl i32 1, %53
  %55 = zext i32 %54 to i64
  %56 = getelementptr inbounds nuw i32, ptr %50, i64 %55
  store ptr %56, ptr %10, align 8, !tbaa !20
  call void @llvm.lifetime.start.p0(i64 8, ptr %11) #6
  %57 = load ptr, ptr %10, align 8, !tbaa !20
  %58 = load ptr, ptr %5, align 8, !tbaa !18
  %59 = getelementptr inbounds nuw %"struct.duckdb_brotli::PreparedDictionary", ptr %58, i32 0, i32 4
  %60 = load i32, ptr %59, align 4, !tbaa !35
  %61 = shl i32 1, %60
  %62 = zext i32 %61 to i64
  %63 = getelementptr inbounds nuw i16, ptr %57, i64 %62
  store ptr %63, ptr %11, align 8, !tbaa !22
  call void @llvm.lifetime.start.p0(i64 8, ptr %12) #6
  %64 = load ptr, ptr %11, align 8, !tbaa !22
  %65 = load ptr, ptr %5, align 8, !tbaa !18
  %66 = getelementptr inbounds nuw %"struct.duckdb_brotli::PreparedDictionary", ptr %65, i32 0, i32 1
  %67 = load i32, ptr %66, align 4, !tbaa !32
  %68 = zext i32 %67 to i64
  %69 = getelementptr inbounds nuw i32, ptr %64, i64 %68
  store ptr %69, ptr %12, align 8, !tbaa !45
  %70 = load ptr, ptr %5, align 8, !tbaa !18
  %71 = getelementptr inbounds nuw %"struct.duckdb_brotli::PreparedDictionary", ptr %70, i32 0, i32 0
  %72 = load i32, ptr %71, align 4, !tbaa !30
  %73 = icmp eq i32 %72, -558043680
  br i1 %73, label %74, label %80

74:                                               ; preds = %22
  %75 = load ptr, ptr %12, align 8, !tbaa !45
  %76 = load ptr, ptr %4, align 8, !tbaa !40
  %77 = getelementptr inbounds nuw %"struct.duckdb_brotli::CompoundDictionary", ptr %76, i32 0, i32 3
  %78 = load i64, ptr %7, align 8, !tbaa !10
  %79 = getelementptr inbounds nuw [16 x ptr], ptr %77, i64 0, i64 %78
  store ptr %75, ptr %79, align 8, !tbaa !8
  br label %87

80:                                               ; preds = %22
  %81 = load ptr, ptr %12, align 8, !tbaa !45
  %82 = call noundef ptr @_ZL25BROTLI_UNALIGNED_LOAD_PTRPKv(ptr noundef %81)
  %83 = load ptr, ptr %4, align 8, !tbaa !40
  %84 = getelementptr inbounds nuw %"struct.duckdb_brotli::CompoundDictionary", ptr %83, i32 0, i32 3
  %85 = load i64, ptr %7, align 8, !tbaa !10
  %86 = getelementptr inbounds nuw [16 x ptr], ptr %84, i64 0, i64 %85
  store ptr %82, ptr %86, align 8, !tbaa !8
  br label %87

87:                                               ; preds = %80, %74
  call void @llvm.lifetime.end.p0(i64 8, ptr %12) #6
  call void @llvm.lifetime.end.p0(i64 8, ptr %11) #6
  call void @llvm.lifetime.end.p0(i64 8, ptr %10) #6
  call void @llvm.lifetime.end.p0(i64 8, ptr %9) #6
  %88 = load ptr, ptr %4, align 8, !tbaa !40
  %89 = getelementptr inbounds nuw %"struct.duckdb_brotli::CompoundDictionary", ptr %88, i32 0, i32 0
  %90 = load i64, ptr %89, align 8, !tbaa !42
  %91 = add i64 %90, 1
  store i64 %91, ptr %89, align 8, !tbaa !42
  store i32 1, ptr %3, align 4
  store i32 1, ptr %8, align 4
  br label %92

92:                                               ; preds = %87, %21, %17
  call void @llvm.lifetime.end.p0(i64 8, ptr %7) #6
  call void @llvm.lifetime.end.p0(i64 8, ptr %6) #6
  %93 = load i32, ptr %3, align 4
  ret i32 %93
}